target datalayout = "e-m:e-p270:32:32-p271:32:32-p272:64:64-i64:64-i128:128-f80:128-n8:16:32:64-S128"
target triple = "x86_64-pc-linux-gnu"

%"struct.dap::json::JsonCppSerializer" = type <{ %"class.dap::Serializer", ptr, i8, i8, [6 x i8] }>
%"class.dap::Serializer" = type { ptr }

; Function Attrs: mustprogress nounwind uwtable
define linkonce_odr dso_local void @_ZN3dap10SerializerD2Ev(ptr noundef nonnull align 8 dereferenceable(8) %0) unnamed_addr #1 comdat align 2 {
  %2 = alloca ptr, align 8
  store ptr %0, ptr %2, align 8
  ret void
}

; Function Attrs: mustprogress nounwind uwtable
define linkonce_odr dso_local void @_ZN3dap10SerializerC2Ev(ptr noundef nonnull align 8 dereferenceable(8) %0) unnamed_addr #1 comdat align 2 {
  %2 = alloca ptr, align 8
  store ptr %0, ptr %2, align 8
  %3 = load ptr, ptr %2, align 8
  store ptr getelementptr inbounds ({ [13 x ptr] }, ptr @_ZTVN3dap10SerializerE, i32 0, i32 0, i32 2), ptr %3, align 8
  ret void
}

; Function Attrs: mustprogress uwtable
define dso_local void @_ZN3dap4json17JsonCppSerializerC2Ev(ptr noundef nonnull align 8 dereferenceable(18) %0) unnamed_addr #0 align 2 personality ptr @__gxx_personality_v0 {
  %2 = alloca ptr, align 8
  %3 = alloca ptr, align 8
  %4 = alloca i32, align 4
  store ptr %0, ptr %2, align 8
  %5 = load ptr, ptr %2, align 8
  call void @_ZN3dap10SerializerC2Ev(ptr noundef nonnull align 8 dereferenceable(8) %5) #13
  store ptr getelementptr inbounds ({ [13 x ptr] }, ptr @_ZTVN3dap4json17JsonCppSerializerE, i32 0, i32 0, i32 2), ptr %5, align 8
  %6 = getelementptr inbounds %"struct.dap::json::JsonCppSerializer", ptr %5, i32 0, i32 1
  %7 = invoke noalias noundef nonnull ptr @_Znwm(i64 noundef 40) #14
          to label %8 unwind label %12

8:                                                ; preds = %1
  invoke void @_ZN4Json5ValueC1ENS_9ValueTypeE(ptr noundef nonnull align 8 dereferenceable(40) %7, i32 noundef 0)
          to label %9 unwind label %16

9:                                                ; preds = %8
  store ptr %7, ptr %6, align 8
  %10 = getelementptr inbounds %"struct.dap::json::JsonCppSerializer", ptr %5, i32 0, i32 2
  store i8 1, ptr %10, align 8
  %11 = getelementptr inbounds %"struct.dap::json::JsonCppSerializer", ptr %5, i32 0, i32 3
  store i8 0, ptr %11, align 1
  ret void

12:                                               ; preds = %1
  %13 = landingpad { ptr, i32 }
          cleanup
  %14 = extractvalue { ptr, i32 } %13, 0
  store ptr %14, ptr %3, align 8
  %15 = extractvalue { ptr, i32 } %13, 1
  store i32 %15, ptr %4, align 4
  br label %20

16:                                               ; preds = %8
  %17 = landingpad { ptr, i32 }
          cleanup
  %18 = extractvalue { ptr, i32 } %17, 0
  store ptr %18, ptr %3, align 8
  %19 = extractvalue { ptr, i32 } %17, 1
  store i32 %19, ptr %4, align 4
  call void @_ZdlPv(ptr noundef %7) #15
  br label %20

20:                                               ; preds = %16, %12
  call void @_ZN3dap10SerializerD2Ev(ptr noundef nonnull align 8 dereferenceable(8) %5) #13
  br label %21

21:                                               ; preds = %20
  %22 = load ptr, ptr %3, align 8
  %23 = load i32, ptr %4, align 4
  %24 = insertvalue { ptr, i32 } poison, ptr %22, 0
  %25 = insertvalue { ptr, i32 } %24, i32 %23, 1
  resume { ptr, i32 } %25
}