; Function Attrs: mustprogress uwtable
define dso_local void @_ZN3dap4json17JsonCppSerializerC2Ev(ptr nocapture noundef nonnull writeonly align 8 dereferenceable(18) %0) unnamed_addr #0 align 2 personality ptr @__gxx_personality_v0 {
  store ptr getelementptr inbounds ({ [13 x ptr] }, ptr @_ZTVN3dap4json17JsonCppSerializerE, i64 0, i32 0, i64 2), ptr %0, align 8
  %2 = tail call noalias noundef nonnull dereferenceable(40) ptr @_Znwm(i64 noundef 40) #19
  invoke void @_ZN4Json5ValueC1ENS_9ValueTypeE(ptr noundef nonnull align 8 dereferenceable(40) %2, i32 noundef 0)
          to label %3 unwind label %7

3:                                                ; preds = %1
  %4 = getelementptr inbounds i8, ptr %0, i64 8
  store ptr %2, ptr %4, align 8
  %5 = getelementptr inbounds i8, ptr %0, i64 16
  store i8 1, ptr %5, align 8
  %6 = getelementptr inbounds i8, ptr %0, i64 17
  store i8 0, ptr %6, align 1
  ret void

7:                                                ; preds = %1
  %8 = landingpad { ptr, i32 }
          cleanup
  tail call void @_ZdlPv(ptr noundef nonnull %2) #20
  resume { ptr, i32 } %8
}